target datalayout = "e-m:e-p270:32:32-p271:32:32-p272:64:64-i64:64-i128:128-f80:128-n8:16:32:64-S128"
target triple = "x86_64-pc-linux-gnu"

%struct.H5O_shared_t = type { i32, ptr, i32, %union.anon }
%union.anon = type { %struct.H5O_mesg_loc_t }
%struct.H5O_mesg_loc_t = type { i32, i64 }

@H5E_OHDR_g = external global i64, align 8
@.str.10 = private unnamed_addr constant [103 x i8] c"generated/home/dtcxzyw/WorkSpace/Projects/compilers/llvm-opt-benchmark/bench/hdf5/hdf5/src/H5Oshared.h\00", align 1
@__func__.H5O__fill_shared_link = private unnamed_addr constant [22 x i8] c"H5O__fill_shared_link\00", align 1
@H5E_CANTINC_g = external global i64, align 8
@.str.24 = private unnamed_addr constant [49 x i8] c"unable to increment ref count for shared message\00", align 1

; Function Attrs: nounwind uwtable
define internal i32 @H5O__fill_shared_link(ptr noundef %0, ptr noundef %1, ptr noundef %2) #0 {
  %4 = alloca ptr, align 8
  %5 = alloca ptr, align 8
  %6 = alloca ptr, align 8
  %7 = alloca ptr, align 8
  %8 = alloca i32, align 4
  %9 = alloca i8, align 1
  store ptr %0, ptr %4, align 8
  store ptr %1, ptr %5, align 8
  store ptr %2, ptr %6, align 8
  %10 = load ptr, ptr %6, align 8
  store ptr %10, ptr %7, align 8
  store i32 0, ptr %8, align 4
  store i8 0, ptr %9, align 1
  %11 = load ptr, ptr %7, align 8
  %12 = getelementptr inbounds %struct.H5O_shared_t, ptr %11, i32 0, i32 0
  %13 = load i32, ptr %12, align 8
  %14 = icmp ugt i32 %13, 0
  br i1 %14, label %15, label %37

15:                                               ; preds = %3
  %16 = load ptr, ptr %4, align 8
  %17 = load ptr, ptr %5, align 8
  %18 = load ptr, ptr %7, align 8
  %19 = call i32 @H5O__shared_link(ptr noundef %16, ptr noundef %17, ptr noundef @H5O_MSG_FILL, ptr noundef %18)
  %20 = icmp slt i32 %19, 0
  br i1 %20, label %21, label %36

21:                                               ; preds = %15
  br label %22

22:                                               ; preds = %21
  br label %23

23:                                               ; preds = %22
  br label %24

24:                                               ; preds = %23
  %25 = load i64, ptr @H5E_OHDR_g, align 8
  %26 = load i64, ptr @H5E_CANTINC_g, align 8
  %27 = call i32 (ptr, ptr, i32, i64, i64, ptr, ...) @H5E_printf_stack(ptr noundef @.str.10, ptr noundef @__func__.H5O__fill_shared_link, i32 noundef 257, i64 noundef %25, i64 noundef %26, ptr noundef @.str.24)
  br label %28

28:                                               ; preds = %24
  store i8 1, ptr %9, align 1
  %29 = load i8, ptr %9, align 1
  %30 = trunc i8 %29 to i1
  %31 = zext i1 %30 to i8
  store i8 %31, ptr %9, align 1
  br label %32

32:                                               ; preds = %28
  br label %33

33:                                               ; preds = %32
  store i32 -1, ptr %8, align 4
  br label %38

34:                                               ; No predecessors!
  br label %35

35:                                               ; preds = %34
  br label %36

36:                                               ; preds = %35, %15
  br label %37

37:                                               ; preds = %36, %3
  br label %38

38:                                               ; preds = %37, %33
  %39 = load i32, ptr %8, align 4
  ret i32 %39
}